target datalayout = "e-m:e-p270:32:32-p271:32:32-p272:64:64-i64:64-i128:128-f80:128-n8:16:32:64-S128"
target triple = "x86_64-pc-linux-gnu"

; Function Attrs: mustprogress uwtable
define internal noundef i32 @_ZL11os_difftimeP9lua_State(ptr noundef %0) #0 {
  %2 = alloca ptr, align 8
  store ptr %0, ptr %2, align 8, !tbaa !4
  %3 = load ptr, ptr %2, align 8, !tbaa !4
  %4 = load ptr, ptr %2, align 8, !tbaa !4
  %5 = call noundef double @_Z16luaL_checknumberP9lua_Statei(ptr noundef %4, i32 noundef 1)
  %6 = fptosi double %5 to i64
  %7 = load ptr, ptr %2, align 8, !tbaa !4
  %8 = call noundef double @_Z14luaL_optnumberP9lua_Stateid(ptr noundef %7, i32 noundef 2, double noundef 0.000000e+00)
  %9 = fptosi double %8 to i64
  %10 = call double @difftime(i64 noundef %6, i64 noundef %9) #11
  call void @_Z14lua_pushnumberP9lua_Stated(ptr noundef %3, double noundef %10)
  ret i32 1
}