; Function Attrs: mustprogress uwtable
define internal noundef i32 @_ZL11os_difftimeP9lua_State(ptr noundef %0) #0 {
  %2 = tail call noundef double @_Z16luaL_checknumberP9lua_Statei(ptr noundef %0, i32 noundef 1)
  %3 = fptosi double %2 to i64
  %4 = tail call noundef double @_Z14luaL_optnumberP9lua_Stateid(ptr noundef %0, i32 noundef 2, double noundef 0.000000e+00)
  %5 = fptosi double %4 to i64
  %6 = tail call double @difftime(i64 noundef %3, i64 noundef %5) #10
  tail call void @_Z14lua_pushnumberP9lua_Stated(ptr noundef %0, double noundef %6)
  ret i32 1
}